target datalayout = "e-m:e-p270:32:32-p271:32:32-p272:64:64-i64:64-i128:128-f80:128-n8:16:32:64-S128"
target triple = "x86_64-unknown-linux-gnu"

%"struct.std::atomic.2" = type { %"struct.std::__atomic_base.3" }
%"struct.std::__atomic_base.3" = type { ptr }
%"struct.grpc_core::Arena::ManagedNewObject" = type { ptr, ptr }

; Function Attrs: mustprogress nounwind uwtable
define linkonce_odr noundef i32 @_ZStanSt12memory_orderSt23__memory_order_modifier(i32 noundef %__m, i32 noundef %__mod) #4 comdat {
entry:
  %__m.addr = alloca i32, align 4
  %__mod.addr = alloca i32, align 4
  store i32 %__m, ptr %__m.addr, align 4
  store i32 %__mod, ptr %__mod.addr, align 4
  %0 = load i32, ptr %__m.addr, align 4
  %1 = load i32, ptr %__mod.addr, align 4
  %and = and i32 %0, %1
  ret i32 %and
}

; Function Attrs: mustprogress nounwind uwtable
define linkonce_odr noundef zeroext i1 @_ZNSt6atomicIPN9grpc_core5Arena16ManagedNewObjectEE21compare_exchange_weakERS3_S3_St12memory_orderS6_(ptr noundef nonnull align 8 dereferenceable(8) %this, ptr noundef nonnull align 8 dereferenceable(8) %__p1, ptr noundef %__p2, i32 noundef %__m1, i32 noundef %__m2) #4 comdat align 2 {
entry:
  %this.addr.i = alloca ptr, align 8
  %__p1.addr.i = alloca ptr, align 8
  %__p2.addr.i = alloca ptr, align 8
  %__m1.addr.i = alloca i32, align 4
  %__m2.addr.i = alloca i32, align 4
  %.atomictmp.i = alloca ptr, align 8
  %cmpxchg.bool.i = alloca i8, align 1
  %this.addr = alloca ptr, align 8
  %__p1.addr = alloca ptr, align 8
  %__p2.addr = alloca ptr, align 8
  %__m1.addr = alloca i32, align 4
  %__m2.addr = alloca i32, align 4
  store ptr %this, ptr %this.addr, align 8
  store ptr %__p1, ptr %__p1.addr, align 8
  store ptr %__p2, ptr %__p2.addr, align 8
  store i32 %__m1, ptr %__m1.addr, align 4
  store i32 %__m2, ptr %__m2.addr, align 4
  %this1 = load ptr, ptr %this.addr, align 8
  %_M_b = getelementptr inbounds %"struct.std::atomic.2", ptr %this1, i32 0, i32 0
  %0 = load ptr, ptr %__p1.addr, align 8
  %1 = load ptr, ptr %__p2.addr, align 8
  %2 = load i32, ptr %__m1.addr, align 4
  %3 = load i32, ptr %__m2.addr, align 4
  store ptr %_M_b, ptr %this.addr.i, align 8
  store ptr %0, ptr %__p1.addr.i, align 8
  store ptr %1, ptr %__p2.addr.i, align 8
  store i32 %2, ptr %__m1.addr.i, align 4
  store i32 %3, ptr %__m2.addr.i, align 4
  %this1.i = load ptr, ptr %this.addr.i, align 8
  %4 = load i32, ptr %__m1.addr.i, align 4
  %5 = load ptr, ptr %__p1.addr.i, align 8
  %6 = load ptr, ptr %__p2.addr.i, align 8
  store ptr %6, ptr %.atomictmp.i, align 8
  %7 = load i32, ptr %__m2.addr.i, align 4
  switch i32 %4, label %monotonic.i [
    i32 1, label %acquire.i
    i32 2, label %acquire.i
    i32 3, label %release.i
    i32 4, label %acqrel.i
    i32 5, label %seqcst.i
  ]

monotonic.i:                                      ; preds = %entry
  switch i32 %7, label %monotonic_fail.i [
    i32 1, label %acquire_fail.i
    i32 2, label %acquire_fail.i
    i32 5, label %seqcst_fail.i
  ]

acquire.i:                                        ; preds = %entry, %entry
  switch i32 %7, label %monotonic_fail9.i [
    i32 1, label %acquire_fail10.i
    i32 2, label %acquire_fail10.i
    i32 5, label %seqcst_fail11.i
  ]

release.i:                                        ; preds = %entry
  switch i32 %7, label %monotonic_fail22.i [
    i32 1, label %acquire_fail23.i
    i32 2, label %acquire_fail23.i
    i32 5, label %seqcst_fail24.i
  ]

acqrel.i:                                         ; preds = %entry
  switch i32 %7, label %monotonic_fail35.i [
    i32 1, label %acquire_fail36.i
    i32 2, label %acquire_fail36.i
    i32 5, label %seqcst_fail37.i
  ]

seqcst.i:                                         ; preds = %entry
  switch i32 %7, label %monotonic_fail48.i [
    i32 1, label %acquire_fail49.i
    i32 2, label %acquire_fail49.i
    i32 5, label %seqcst_fail50.i
  ]

monotonic_fail.i:                                 ; preds = %monotonic.i
  %8 = load i64, ptr %5, align 8
  %9 = load i64, ptr %.atomictmp.i, align 8
  %10 = cmpxchg weak ptr %this1.i, i64 %8, i64 %9 monotonic monotonic, align 8
  %11 = extractvalue { i64, i1 } %10, 0
  %12 = extractvalue { i64, i1 } %10, 1
  br i1 %12, label %cmpxchg.continue.i, label %cmpxchg.store_expected.i

acquire_fail.i:                                   ; preds = %monotonic.i, %monotonic.i
  %13 = load i64, ptr %5, align 8
  %14 = load i64, ptr %.atomictmp.i, align 8
  %15 = cmpxchg weak ptr %this1.i, i64 %13, i64 %14 monotonic acquire, align 8
  %16 = extractvalue { i64, i1 } %15, 0
  %17 = extractvalue { i64, i1 } %15, 1
  br i1 %17, label %cmpxchg.continue4.i, label %cmpxchg.store_expected3.i

seqcst_fail.i:                                    ; preds = %monotonic.i
  %18 = load i64, ptr %5, align 8
  %19 = load i64, ptr %.atomictmp.i, align 8
  %20 = cmpxchg weak ptr %this1.i, i64 %18, i64 %19 monotonic seq_cst, align 8
  %21 = extractvalue { i64, i1 } %20, 0
  %22 = extractvalue { i64, i1 } %20, 1
  br i1 %22, label %cmpxchg.continue7.i, label %cmpxchg.store_expected6.i

atomic.continue2.i:                               ; preds = %cmpxchg.continue7.i, %cmpxchg.continue4.i, %cmpxchg.continue.i
  br label %_ZNSt13__atomic_baseIPN9grpc_core5Arena16ManagedNewObjectEE21compare_exchange_weakERS3_S3_St12memory_orderS6_.exit

cmpxchg.store_expected.i:                         ; preds = %monotonic_fail.i
  store i64 %11, ptr %5, align 8
  br label %cmpxchg.continue.i

cmpxchg.continue.i:                               ; preds = %cmpxchg.store_expected.i, %monotonic_fail.i
  %frombool.i = zext i1 %12 to i8
  store i8 %frombool.i, ptr %cmpxchg.bool.i, align 1
  br label %atomic.continue2.i

cmpxchg.store_expected3.i:                        ; preds = %acquire_fail.i
  store i64 %16, ptr %5, align 8
  br label %cmpxchg.continue4.i

cmpxchg.continue4.i:                              ; preds = %cmpxchg.store_expected3.i, %acquire_fail.i
  %frombool5.i = zext i1 %17 to i8
  store i8 %frombool5.i, ptr %cmpxchg.bool.i, align 1
  br label %atomic.continue2.i

cmpxchg.store_expected6.i:                        ; preds = %seqcst_fail.i
  store i64 %21, ptr %5, align 8
  br label %cmpxchg.continue7.i

cmpxchg.continue7.i:                              ; preds = %cmpxchg.store_expected6.i, %seqcst_fail.i
  %frombool8.i = zext i1 %22 to i8
  store i8 %frombool8.i, ptr %cmpxchg.bool.i, align 1
  br label %atomic.continue2.i

monotonic_fail9.i:                                ; preds = %acquire.i
  %23 = load i64, ptr %5, align 8
  %24 = load i64, ptr %.atomictmp.i, align 8
  %25 = cmpxchg weak ptr %this1.i, i64 %23, i64 %24 acquire monotonic, align 8
  %26 = extractvalue { i64, i1 } %25, 0
  %27 = extractvalue { i64, i1 } %25, 1
  br i1 %27, label %cmpxchg.continue14.i, label %cmpxchg.store_expected13.i

acquire_fail10.i:                                 ; preds = %acquire.i, %acquire.i
  %28 = load i64, ptr %5, align 8
  %29 = load i64, ptr %.atomictmp.i, align 8
  %30 = cmpxchg weak ptr %this1.i, i64 %28, i64 %29 acquire acquire, align 8
  %31 = extractvalue { i64, i1 } %30, 0
  %32 = extractvalue { i64, i1 } %30, 1
  br i1 %32, label %cmpxchg.continue17.i, label %cmpxchg.store_expected16.i

seqcst_fail11.i:                                  ; preds = %acquire.i
  %33 = load i64, ptr %5, align 8
  %34 = load i64, ptr %.atomictmp.i, align 8
  %35 = cmpxchg weak ptr %this1.i, i64 %33, i64 %34 acquire seq_cst, align 8
  %36 = extractvalue { i64, i1 } %35, 0
  %37 = extractvalue { i64, i1 } %35, 1
  br i1 %37, label %cmpxchg.continue20.i, label %cmpxchg.store_expected19.i

atomic.continue12.i:                              ; preds = %cmpxchg.continue20.i, %cmpxchg.continue17.i, %cmpxchg.continue14.i
  br label %_ZNSt13__atomic_baseIPN9grpc_core5Arena16ManagedNewObjectEE21compare_exchange_weakERS3_S3_St12memory_orderS6_.exit

cmpxchg.store_expected13.i:                       ; preds = %monotonic_fail9.i
  store i64 %26, ptr %5, align 8
  br label %cmpxchg.continue14.i

cmpxchg.continue14.i:                             ; preds = %cmpxchg.store_expected13.i, %monotonic_fail9.i
  %frombool15.i = zext i1 %27 to i8
  store i8 %frombool15.i, ptr %cmpxchg.bool.i, align 1
  br label %atomic.continue12.i

cmpxchg.store_expected16.i:                       ; preds = %acquire_fail10.i
  store i64 %31, ptr %5, align 8
  br label %cmpxchg.continue17.i

cmpxchg.continue17.i:                             ; preds = %cmpxchg.store_expected16.i, %acquire_fail10.i
  %frombool18.i = zext i1 %32 to i8
  store i8 %frombool18.i, ptr %cmpxchg.bool.i, align 1
  br label %atomic.continue12.i

cmpxchg.store_expected19.i:                       ; preds = %seqcst_fail11.i
  store i64 %36, ptr %5, align 8
  br label %cmpxchg.continue20.i

cmpxchg.continue20.i:                             ; preds = %cmpxchg.store_expected19.i, %seqcst_fail11.i
  %frombool21.i = zext i1 %37 to i8
  store i8 %frombool21.i, ptr %cmpxchg.bool.i, align 1
  br label %atomic.continue12.i

monotonic_fail22.i:                               ; preds = %release.i
  %38 = load i64, ptr %5, align 8
  %39 = load i64, ptr %.atomictmp.i, align 8
  %40 = cmpxchg weak ptr %this1.i, i64 %38, i64 %39 release monotonic, align 8
  %41 = extractvalue { i64, i1 } %40, 0
  %42 = extractvalue { i64, i1 } %40, 1
  br i1 %42, label %cmpxchg.continue27.i, label %cmpxchg.store_expected26.i

acquire_fail23.i:                                 ; preds = %release.i, %release.i
  %43 = load i64, ptr %5, align 8
  %44 = load i64, ptr %.atomictmp.i, align 8
  %45 = cmpxchg weak ptr %this1.i, i64 %43, i64 %44 release acquire, align 8
  %46 = extractvalue { i64, i1 } %45, 0
  %47 = extractvalue { i64, i1 } %45, 1
  br i1 %47, label %cmpxchg.continue30.i, label %cmpxchg.store_expected29.i

seqcst_fail24.i:                                  ; preds = %release.i
  %48 = load i64, ptr %5, align 8
  %49 = load i64, ptr %.atomictmp.i, align 8
  %50 = cmpxchg weak ptr %this1.i, i64 %48, i64 %49 release seq_cst, align 8
  %51 = extractvalue { i64, i1 } %50, 0
  %52 = extractvalue { i64, i1 } %50, 1
  br i1 %52, label %cmpxchg.continue33.i, label %cmpxchg.store_expected32.i

atomic.continue25.i:                              ; preds = %cmpxchg.continue33.i, %cmpxchg.continue30.i, %cmpxchg.continue27.i
  br label %_ZNSt13__atomic_baseIPN9grpc_core5Arena16ManagedNewObjectEE21compare_exchange_weakERS3_S3_St12memory_orderS6_.exit

cmpxchg.store_expected26.i:                       ; preds = %monotonic_fail22.i
  store i64 %41, ptr %5, align 8
  br label %cmpxchg.continue27.i

cmpxchg.continue27.i:                             ; preds = %cmpxchg.store_expected26.i, %monotonic_fail22.i
  %frombool28.i = zext i1 %42 to i8
  store i8 %frombool28.i, ptr %cmpxchg.bool.i, align 1
  br label %atomic.continue25.i

cmpxchg.store_expected29.i:                       ; preds = %acquire_fail23.i
  store i64 %46, ptr %5, align 8
  br label %cmpxchg.continue30.i

cmpxchg.continue30.i:                             ; preds = %cmpxchg.store_expected29.i, %acquire_fail23.i
  %frombool31.i = zext i1 %47 to i8
  store i8 %frombool31.i, ptr %cmpxchg.bool.i, align 1
  br label %atomic.continue25.i

cmpxchg.store_expected32.i:                       ; preds = %seqcst_fail24.i
  store i64 %51, ptr %5, align 8
  br label %cmpxchg.continue33.i

cmpxchg.continue33.i:                             ; preds = %cmpxchg.store_expected32.i, %seqcst_fail24.i
  %frombool34.i = zext i1 %52 to i8
  store i8 %frombool34.i, ptr %cmpxchg.bool.i, align 1
  br label %atomic.continue25.i

monotonic_fail35.i:                               ; preds = %acqrel.i
  %53 = load i64, ptr %5, align 8
  %54 = load i64, ptr %.atomictmp.i, align 8
  %55 = cmpxchg weak ptr %this1.i, i64 %53, i64 %54 acq_rel monotonic, align 8
  %56 = extractvalue { i64, i1 } %55, 0
  %57 = extractvalue { i64, i1 } %55, 1
  br i1 %57, label %cmpxchg.continue40.i, label %cmpxchg.store_expected39.i

acquire_fail36.i:                                 ; preds = %acqrel.i, %acqrel.i
  %58 = load i64, ptr %5, align 8
  %59 = load i64, ptr %.atomictmp.i, align 8
  %60 = cmpxchg weak ptr %this1.i, i64 %58, i64 %59 acq_rel acquire, align 8
  %61 = extractvalue { i64, i1 } %60, 0
  %62 = extractvalue { i64, i1 } %60, 1
  br i1 %62, label %cmpxchg.continue43.i, label %cmpxchg.store_expected42.i

seqcst_fail37.i:                                  ; preds = %acqrel.i
  %63 = load i64, ptr %5, align 8
  %64 = load i64, ptr %.atomictmp.i, align 8
  %65 = cmpxchg weak ptr %this1.i, i64 %63, i64 %64 acq_rel seq_cst, align 8
  %66 = extractvalue { i64, i1 } %65, 0
  %67 = extractvalue { i64, i1 } %65, 1
  br i1 %67, label %cmpxchg.continue46.i, label %cmpxchg.store_expected45.i

atomic.continue38.i:                              ; preds = %cmpxchg.continue46.i, %cmpxchg.continue43.i, %cmpxchg.continue40.i
  br label %_ZNSt13__atomic_baseIPN9grpc_core5Arena16ManagedNewObjectEE21compare_exchange_weakERS3_S3_St12memory_orderS6_.exit

cmpxchg.store_expected39.i:                       ; preds = %monotonic_fail35.i
  store i64 %56, ptr %5, align 8
  br label %cmpxchg.continue40.i

cmpxchg.continue40.i:                             ; preds = %cmpxchg.store_expected39.i, %monotonic_fail35.i
  %frombool41.i = zext i1 %57 to i8
  store i8 %frombool41.i, ptr %cmpxchg.bool.i, align 1
  br label %atomic.continue38.i

cmpxchg.store_expected42.i:                       ; preds = %acquire_fail36.i
  store i64 %61, ptr %5, align 8
  br label %cmpxchg.continue43.i

cmpxchg.continue43.i:                             ; preds = %cmpxchg.store_expected42.i, %acquire_fail36.i
  %frombool44.i = zext i1 %62 to i8
  store i8 %frombool44.i, ptr %cmpxchg.bool.i, align 1
  br label %atomic.continue38.i

cmpxchg.store_expected45.i:                       ; preds = %seqcst_fail37.i
  store i64 %66, ptr %5, align 8
  br label %cmpxchg.continue46.i

cmpxchg.continue46.i:                             ; preds = %cmpxchg.store_expected45.i, %seqcst_fail37.i
  %frombool47.i = zext i1 %67 to i8
  store i8 %frombool47.i, ptr %cmpxchg.bool.i, align 1
  br label %atomic.continue38.i

monotonic_fail48.i:                               ; preds = %seqcst.i
  %68 = load i64, ptr %5, align 8
  %69 = load i64, ptr %.atomictmp.i, align 8
  %70 = cmpxchg weak ptr %this1.i, i64 %68, i64 %69 seq_cst monotonic, align 8
  %71 = extractvalue { i64, i1 } %70, 0
  %72 = extractvalue { i64, i1 } %70, 1
  br i1 %72, label %cmpxchg.continue53.i, label %cmpxchg.store_expected52.i

acquire_fail49.i:                                 ; preds = %seqcst.i, %seqcst.i
  %73 = load i64, ptr %5, align 8
  %74 = load i64, ptr %.atomictmp.i, align 8
  %75 = cmpxchg weak ptr %this1.i, i64 %73, i64 %74 seq_cst acquire, align 8
  %76 = extractvalue { i64, i1 } %75, 0
  %77 = extractvalue { i64, i1 } %75, 1
  br i1 %77, label %cmpxchg.continue56.i, label %cmpxchg.store_expected55.i

seqcst_fail50.i:                                  ; preds = %seqcst.i
  %78 = load i64, ptr %5, align 8
  %79 = load i64, ptr %.atomictmp.i, align 8
  %80 = cmpxchg weak ptr %this1.i, i64 %78, i64 %79 seq_cst seq_cst, align 8
  %81 = extractvalue { i64, i1 } %80, 0
  %82 = extractvalue { i64, i1 } %80, 1
  br i1 %82, label %cmpxchg.continue59.i, label %cmpxchg.store_expected58.i

atomic.continue51.i:                              ; preds = %cmpxchg.continue59.i, %cmpxchg.continue56.i, %cmpxchg.continue53.i
  br label %_ZNSt13__atomic_baseIPN9grpc_core5Arena16ManagedNewObjectEE21compare_exchange_weakERS3_S3_St12memory_orderS6_.exit

cmpxchg.store_expected52.i:                       ; preds = %monotonic_fail48.i
  store i64 %71, ptr %5, align 8
  br label %cmpxchg.continue53.i

cmpxchg.continue53.i:                             ; preds = %cmpxchg.store_expected52.i, %monotonic_fail48.i
  %frombool54.i = zext i1 %72 to i8
  store i8 %frombool54.i, ptr %cmpxchg.bool.i, align 1
  br label %atomic.continue51.i

cmpxchg.store_expected55.i:                       ; preds = %acquire_fail49.i
  store i64 %76, ptr %5, align 8
  br label %cmpxchg.continue56.i

cmpxchg.continue56.i:                             ; preds = %cmpxchg.store_expected55.i, %acquire_fail49.i
  %frombool57.i = zext i1 %77 to i8
  store i8 %frombool57.i, ptr %cmpxchg.bool.i, align 1
  br label %atomic.continue51.i

cmpxchg.store_expected58.i:                       ; preds = %seqcst_fail50.i
  store i64 %81, ptr %5, align 8
  br label %cmpxchg.continue59.i

cmpxchg.continue59.i:                             ; preds = %cmpxchg.store_expected58.i, %seqcst_fail50.i
  %frombool60.i = zext i1 %82 to i8
  store i8 %frombool60.i, ptr %cmpxchg.bool.i, align 1
  br label %atomic.continue51.i

_ZNSt13__atomic_baseIPN9grpc_core5Arena16ManagedNewObjectEE21compare_exchange_weakERS3_S3_St12memory_orderS6_.exit: ; preds = %atomic.continue51.i, %atomic.continue38.i, %atomic.continue25.i, %atomic.continue12.i, %atomic.continue2.i
  %83 = load i8, ptr %cmpxchg.bool.i, align 1
  %tobool.i = trunc i8 %83 to i1
  ret i1 %tobool.i
}

; Function Attrs: mustprogress nounwind uwtable
define linkonce_odr noundef ptr @_ZNKSt6atomicIPN9grpc_core5Arena16ManagedNewObjectEE4loadESt12memory_order(ptr noundef nonnull align 8 dereferenceable(8) %this, i32 noundef %__m) #4 comdat align 2 {
entry:
  %this.addr.i = alloca ptr, align 8
  %__m.addr.i = alloca i32, align 4
  %__b.i = alloca i32, align 4
  %atomic-temp.i = alloca ptr, align 8
  %this.addr = alloca ptr, align 8
  %__m.addr = alloca i32, align 4
  store ptr %this, ptr %this.addr, align 8
  store i32 %__m, ptr %__m.addr, align 4
  %this1 = load ptr, ptr %this.addr, align 8
  %_M_b = getelementptr inbounds %"struct.std::atomic.2", ptr %this1, i32 0, i32 0
  %0 = load i32, ptr %__m.addr, align 4
  store ptr %_M_b, ptr %this.addr.i, align 8
  store i32 %0, ptr %__m.addr.i, align 4
  %this1.i = load ptr, ptr %this.addr.i, align 8
  %1 = load i32, ptr %__m.addr.i, align 4
  %call.i = call noundef i32 @_ZStanSt12memory_orderSt23__memory_order_modifier(i32 noundef %1, i32 noundef 65535)
  store i32 %call.i, ptr %__b.i, align 4
  %2 = load i32, ptr %__m.addr.i, align 4
  switch i32 %2, label %monotonic.i [
    i32 1, label %acquire.i
    i32 2, label %acquire.i
    i32 5, label %seqcst.i
  ]

monotonic.i:                                      ; preds = %entry
  %3 = load atomic i64, ptr %this1.i monotonic, align 8
  store i64 %3, ptr %atomic-temp.i, align 8
  br label %_ZNKSt13__atomic_baseIPN9grpc_core5Arena16ManagedNewObjectEE4loadESt12memory_order.exit

acquire.i:                                        ; preds = %entry, %entry
  %4 = load atomic i64, ptr %this1.i acquire, align 8
  store i64 %4, ptr %atomic-temp.i, align 8
  br label %_ZNKSt13__atomic_baseIPN9grpc_core5Arena16ManagedNewObjectEE4loadESt12memory_order.exit

seqcst.i:                                         ; preds = %entry
  %5 = load atomic i64, ptr %this1.i seq_cst, align 8
  store i64 %5, ptr %atomic-temp.i, align 8
  br label %_ZNKSt13__atomic_baseIPN9grpc_core5Arena16ManagedNewObjectEE4loadESt12memory_order.exit

_ZNKSt13__atomic_baseIPN9grpc_core5Arena16ManagedNewObjectEE4loadESt12memory_order.exit: ; preds = %seqcst.i, %acquire.i, %monotonic.i
  %6 = load ptr, ptr %atomic-temp.i, align 8
  ret ptr %6
}

; Function Attrs: mustprogress nounwind uwtable
define void @_ZN9grpc_core5Arena16ManagedNewObject4LinkEPSt6atomicIPS1_E(ptr noundef nonnull align 8 dereferenceable(16) %this, ptr noundef %head) #4 align 2 {
entry:
  %this.addr = alloca ptr, align 8
  %head.addr = alloca ptr, align 8
  store ptr %this, ptr %this.addr, align 8
  store ptr %head, ptr %head.addr, align 8
  %this1 = load ptr, ptr %this.addr, align 8
  %0 = load ptr, ptr %head.addr, align 8
  %call = call noundef ptr @_ZNKSt6atomicIPN9grpc_core5Arena16ManagedNewObjectEE4loadESt12memory_order(ptr noundef nonnull align 8 dereferenceable(8) %0, i32 noundef 0) #3
  %next = getelementptr inbounds %"struct.grpc_core::Arena::ManagedNewObject", ptr %this1, i32 0, i32 1
  store ptr %call, ptr %next, align 8
  br label %while.cond

while.cond:                                       ; preds = %while.body, %entry
  %1 = load ptr, ptr %head.addr, align 8
  %next2 = getelementptr inbounds %"struct.grpc_core::Arena::ManagedNewObject", ptr %this1, i32 0, i32 1
  %call3 = call noundef zeroext i1 @_ZNSt6atomicIPN9grpc_core5Arena16ManagedNewObjectEE21compare_exchange_weakERS3_S3_St12memory_orderS6_(ptr noundef nonnull align 8 dereferenceable(8) %1, ptr noundef nonnull align 8 dereferenceable(8) %next2, ptr noundef %this1, i32 noundef 4, i32 noundef 0) #3
  %lnot = xor i1 %call3, true
  br i1 %lnot, label %while.body, label %while.end

while.body:                                       ; preds = %while.cond
  br label %while.cond, !llvm.loop !9

while.end:                                        ; preds = %while.cond
  ret void
}