; Function Attrs: mustprogress nofree norecurse nounwind memory(argmem: readwrite) uwtable
define void @_ZN9grpc_core5Arena16ManagedNewObject4LinkEPSt6atomicIPS1_E(ptr noundef nonnull align 8 dereferenceable(16) %this, ptr nocapture noundef %head) local_unnamed_addr #7 align 2 {
entry:
  %0 = load atomic i64, ptr %head monotonic, align 8
  %next = getelementptr inbounds i8, ptr %this, i64 8
  %1 = ptrtoint ptr %this to i64
  %storemerge3 = inttoptr i64 %0 to ptr
  store ptr %storemerge3, ptr %next, align 8
  %2 = cmpxchg weak ptr %head, i64 %0, i64 %1 acq_rel monotonic, align 8
  %3 = extractvalue { i64, i1 } %2, 1
  br i1 %3, label %while.end, label %_ZNSt6atomicIPN9grpc_core5Arena16ManagedNewObjectEE21compare_exchange_weakERS3_S3_St12memory_orderS6_.exit

_ZNSt6atomicIPN9grpc_core5Arena16ManagedNewObjectEE21compare_exchange_weakERS3_S3_St12memory_orderS6_.exit: ; preds = %entry, %_ZNSt6atomicIPN9grpc_core5Arena16ManagedNewObjectEE21compare_exchange_weakERS3_S3_St12memory_orderS6_.exit
  %4 = phi { i64, i1 } [ %6, %_ZNSt6atomicIPN9grpc_core5Arena16ManagedNewObjectEE21compare_exchange_weakERS3_S3_St12memory_orderS6_.exit ], [ %2, %entry ]
  %5 = extractvalue { i64, i1 } %4, 0
  %storemerge = inttoptr i64 %5 to ptr
  store ptr %storemerge, ptr %next, align 8
  %6 = cmpxchg weak ptr %head, i64 %5, i64 %1 acq_rel monotonic, align 8
  %7 = extractvalue { i64, i1 } %6, 1
  br i1 %7, label %while.end, label %_ZNSt6atomicIPN9grpc_core5Arena16ManagedNewObjectEE21compare_exchange_weakERS3_S3_St12memory_orderS6_.exit, !llvm.loop !9

while.end:                                        ; preds = %_ZNSt6atomicIPN9grpc_core5Arena16ManagedNewObjectEE21compare_exchange_weakERS3_S3_St12memory_orderS6_.exit, %entry
  ret void
}